; Function Attrs: nounwind uwtable
define dso_local ptr @bb_g_xlate_bb_2_tres_str(ptr noundef %0) local_unnamed_addr #0 {
  %2 = alloca %struct.timeval, align 8
  %3 = alloca %struct.timeval, align 8
  %4 = alloca [20 x i8], align 16
  %5 = alloca i64, align 8
  %6 = alloca ptr, align 8
  %7 = alloca ptr, align 8
  call void @llvm.lifetime.start.p0(i64 16, ptr nonnull %2) #11
  call void @llvm.lifetime.start.p0(i64 16, ptr nonnull %3) #11
  call void @llvm.lifetime.start.p0(i64 20, ptr nonnull %4) #11
  call void @llvm.memset.p0.i64(ptr noundef nonnull align 16 dereferenceable(20) %4, i8 0, i64 20, i1 false)
  call void @llvm.lifetime.start.p0(i64 8, ptr nonnull %5) #11
  call void @llvm.lifetime.start.p0(i64 8, ptr nonnull %6) #11
  store ptr null, ptr %6, align 8
  call void @llvm.lifetime.start.p0(i64 8, ptr nonnull %7) #11
  %8 = call i32 @gettimeofday(ptr noundef nonnull %2, ptr noundef null) #11
  %9 = tail call i32 @pthread_mutex_lock(ptr noundef nonnull @g_context_lock) #11
  %.not = icmp eq i32 %9, 0
  br i1 %.not, label %.preheader, label %12

.preheader:                                       ; preds = %1
  %10 = load i32, ptr @g_context_cnt, align 4
  %11 = icmp sgt i32 %10, 0
  br i1 %11, label %.lr.ph, label %._crit_edge

12:                                               ; preds = %1
  %13 = tail call ptr @__errno_location() #12
  store i32 %9, ptr %13, align 4
  tail call void (ptr, ...) @fatal_abort(ptr noundef nonnull @.str.1, ptr noundef nonnull @__func__.bb_g_xlate_bb_2_tres_str) #13
  unreachable

.lr.ph:                                           ; preds = %.preheader, %22
  %indvars.iv = phi i64 [ %indvars.iv.next, %22 ], [ 0, %.preheader ]
  %14 = load ptr, ptr @ops, align 8
  %15 = getelementptr inbounds nuw %struct.slurm_bb_ops, ptr %14, i64 %indvars.iv, i32 19
  %16 = load ptr, ptr %15, align 8
  %17 = call ptr %16(ptr noundef %0) #11
  store ptr %17, ptr %7, align 8
  %18 = load ptr, ptr %6, align 8
  %.not10 = icmp eq ptr %18, null
  br i1 %.not10, label %19, label %20

19:                                               ; preds = %.lr.ph
  store ptr %17, ptr %6, align 8
  br label %22

20:                                               ; preds = %.lr.ph
  call void @_xstrcat(ptr noundef nonnull %6, ptr noundef nonnull @.str.2) #11
  %21 = load ptr, ptr %7, align 8
  call void @_xstrcat(ptr noundef nonnull %6, ptr noundef %21) #11
  call void @slurm_xfree(ptr noundef nonnull %7) #11
  br label %22

22:                                               ; preds = %19, %20
  %indvars.iv.next = add nuw nsw i64 %indvars.iv, 1
  %23 = load i32, ptr @g_context_cnt, align 4
  %24 = sext i32 %23 to i64
  %25 = icmp slt i64 %indvars.iv.next, %24
  br i1 %25, label %.lr.ph, label %._crit_edge, !llvm.loop !31

._crit_edge:                                      ; preds = %22, %.preheader
  %26 = call i32 @pthread_mutex_unlock(ptr noundef nonnull @g_context_lock) #11
  %.not9 = icmp eq i32 %26, 0
  br i1 %.not9, label %29, label %27

27:                                               ; preds = %._crit_edge
  %28 = tail call ptr @__errno_location() #12
  store i32 %26, ptr %28, align 4
  call void (ptr, ...) @fatal_abort(ptr noundef nonnull @.str.8, ptr noundef nonnull @__func__.bb_g_xlate_bb_2_tres_str) #13
  unreachable

29:                                               ; preds = %._crit_edge
  %30 = call i32 @gettimeofday(ptr noundef nonnull %3, ptr noundef null) #11
  call void @slurm_diff_tv_str(ptr noundef nonnull %2, ptr noundef nonnull %3, ptr noundef nonnull %4, i32 noundef 20, ptr noundef nonnull @__func__.bb_g_xlate_bb_2_tres_str, i64 noundef 0, ptr noundef nonnull %5) #11
  %31 = load ptr, ptr %6, align 8
  call void @llvm.lifetime.end.p0(i64 8, ptr nonnull %7) #11
  call void @llvm.lifetime.end.p0(i64 8, ptr nonnull %6) #11
  call void @llvm.lifetime.end.p0(i64 8, ptr nonnull %5) #11
  call void @llvm.lifetime.end.p0(i64 20, ptr nonnull %4) #11
  call void @llvm.lifetime.end.p0(i64 16, ptr nonnull %3) #11
  call void @llvm.lifetime.end.p0(i64 16, ptr nonnull %2) #11
  ret ptr %31
}